target datalayout = "e-m:e-p270:32:32-p271:32:32-p272:64:64-i64:64-i128:128-f80:128-n8:16:32:64-S128"
target triple = "x86_64-pc-linux-gnu"

%struct.timeval = type { i64, i64 }

; Function Attrs: nounwind uwtable
define internal double @StopwatchReadAndReset(ptr noundef %0) #0 {
  %2 = alloca ptr, align 8
  %3 = alloca %struct.timeval, align 8
  %4 = alloca double, align 8
  %5 = alloca double, align 8
  store ptr %0, ptr %2, align 8
  %6 = load ptr, ptr %2, align 8
  call void @llvm.memcpy.p0.p0.i64(ptr align 8 %3, ptr align 8 %6, i64 16, i1 false)
  %7 = load ptr, ptr %2, align 8
  %8 = call i32 @gettimeofday(ptr noundef %7, ptr noundef null) #6
  %9 = load ptr, ptr %2, align 8
  %10 = getelementptr inbounds %struct.timeval, ptr %9, i32 0, i32 0
  %11 = load i64, ptr %10, align 8
  %12 = sitofp i64 %11 to double
  %13 = getelementptr inbounds %struct.timeval, ptr %3, i32 0, i32 0
  %14 = load i64, ptr %13, align 8
  %15 = sitofp i64 %14 to double
  %16 = fsub double %12, %15
  store double %16, ptr %4, align 8
  %17 = load ptr, ptr %2, align 8
  %18 = getelementptr inbounds %struct.timeval, ptr %17, i32 0, i32 1
  %19 = load i64, ptr %18, align 8
  %20 = sitofp i64 %19 to double
  %21 = getelementptr inbounds %struct.timeval, ptr %3, i32 0, i32 1
  %22 = load i64, ptr %21, align 8
  %23 = sitofp i64 %22 to double
  %24 = fsub double %20, %23
  store double %24, ptr %5, align 8
  %25 = load double, ptr %4, align 8
  %26 = load double, ptr %5, align 8
  %27 = fdiv double %26, 1.000000e+06
  %28 = fadd double %25, %27
  ret double %28
}