; Function Attrs: nofree nounwind uwtable
define internal fastcc double @StopwatchReadAndReset(ptr nocapture noundef %0) unnamed_addr #3 {
  %.sroa.0.0.copyload = load i64, ptr %0, align 8
  %.sroa.2.0..sroa_idx = getelementptr inbounds i8, ptr %0, i64 8
  %.sroa.2.0.copyload = load i64, ptr %.sroa.2.0..sroa_idx, align 8
  %2 = tail call i32 @gettimeofday(ptr noundef nonnull %0, ptr noundef null) #11
  %3 = load i64, ptr %0, align 8
  %4 = sitofp i64 %3 to double
  %5 = sitofp i64 %.sroa.0.0.copyload to double
  %6 = fsub double %4, %5
  %7 = load i64, ptr %.sroa.2.0..sroa_idx, align 8
  %8 = sitofp i64 %7 to double
  %9 = sitofp i64 %.sroa.2.0.copyload to double
  %10 = fsub double %8, %9
  %11 = fdiv double %10, 1.000000e+06
  %12 = fadd double %6, %11
  ret double %12
}